target datalayout = "e-m:e-p270:32:32-p271:32:32-p272:64:64-i64:64-i128:128-f80:128-n8:16:32:64-S128"
target triple = "x86_64-unknown-linux-gnu"

%"class.quic::QuicSocket::PeekCallback" = type { ptr }
%"class.std::unordered_map" = type { %"class.std::_Hashtable" }
%"class.std::_Hashtable" = type { ptr, i64, %"struct.std::__detail::_Hash_node_base", i64, %"struct.std::__detail::_Prime_rehash_policy", ptr }
%"struct.std::__detail::_Hash_node_base" = type { ptr }
%"struct.std::__detail::_Prime_rehash_policy" = type { float, i64 }
%"class.google::LogMessage" = type { ptr, ptr, %"struct.google::LogMessageTime" }
%"struct.google::LogMessageTime" = type { %struct.tm, i64, i32, i64 }
%struct.tm = type { i32, i32, i32, i32, i32, i32, i32, i32, i32, i64, ptr }
%"class.folly::Optional" = type { %"struct.folly::Optional<std::pair<unsigned long, unsigned long>>::StorageTriviallyDestructible" }
%"struct.folly::Optional<std::pair<unsigned long, unsigned long>>::StorageTriviallyDestructible" = type <{ %union.anon.10, i8, [7 x i8] }>
%union.anon.10 = type { %"struct.std::pair" }
%"struct.std::pair" = type { i64, i64 }
%"class.proxygen::HQStreamDispatcherBase.base" = type <{ %"class.quic::QuicSocket::PeekCallback", %"class.std::unordered_map", ptr, i8 }>
%"class.folly::Optional.13" = type { %"struct.folly::Optional<proxygen::hq::BidirectionalStreamType>::StorageTriviallyDestructible" }
%"struct.folly::Optional<proxygen::hq::BidirectionalStreamType>::StorageTriviallyDestructible" = type <{ %union.anon.14, i8, [7 x i8] }>
%union.anon.14 = type { i64 }
%"class.proxygen::HQBidiStreamDispatcher" = type { %"class.proxygen::HQStreamDispatcherBase.base", ptr }

@.str = private unnamed_addr constant [144 x i8] c"generated/home/dtcxzyw/WorkSpace/Projects/compilers/llvm-opt-benchmark/bench/proxygen/proxygen/proxygen/lib/http/session/HQStreamDispatcher.cpp\00", align 1
@.str.12 = private unnamed_addr constant [19 x i8] c"Unrecognized type=\00", align 1

; Function Attrs: mustprogress uwtable
define linkonce_odr void @_ZNK5folly8OptionalISt4pairImmEE13require_valueEv(ptr noundef nonnull align 8 dereferenceable(24) %this) #1 comdat align 2 {
entry:
  %this.addr = alloca ptr, align 8
  store ptr %this, ptr %this.addr, align 8
  %this1 = load ptr, ptr %this.addr, align 8
  %storage_ = getelementptr inbounds %"class.folly::Optional", ptr %this1, i32 0, i32 0
  %hasValue = getelementptr inbounds %"struct.folly::Optional<std::pair<unsigned long, unsigned long>>::StorageTriviallyDestructible", ptr %storage_, i32 0, i32 1
  %0 = load i8, ptr %hasValue, align 8
  %tobool = trunc i8 %0 to i1
  br i1 %tobool, label %if.end, label %if.then

if.then:                                          ; preds = %entry
  call void @_ZN5folly6detail16throw_exception_INS_22OptionalEmptyExceptionEJEEEvDpT0_() #16
  unreachable

_ZN5folly15throw_exceptionINS_22OptionalEmptyExceptionEJEEEvDpOT0_.exit: ; No predecessors!
  unreachable

if.end:                                           ; preds = %entry
  ret void
}

; Function Attrs: mustprogress uwtable
define linkonce_odr noundef nonnull align 8 dereferenceable(16) ptr @_ZNR5folly8OptionalISt4pairImmEE5valueEv(ptr noundef nonnull align 8 dereferenceable(24) %this) #1 comdat align 2 {
entry:
  %this.addr = alloca ptr, align 8
  store ptr %this, ptr %this.addr, align 8
  %this1 = load ptr, ptr %this.addr, align 8
  call void @_ZNK5folly8OptionalISt4pairImmEE13require_valueEv(ptr noundef nonnull align 8 dereferenceable(24) %this1)
  %storage_ = getelementptr inbounds %"class.folly::Optional", ptr %this1, i32 0, i32 0
  %0 = getelementptr inbounds %"struct.folly::Optional<std::pair<unsigned long, unsigned long>>::StorageTriviallyDestructible", ptr %storage_, i32 0, i32 0
  ret ptr %0
}

; Function Attrs: mustprogress nounwind uwtable
define linkonce_odr noundef zeroext i1 @_ZNK5folly8OptionalISt4pairImmEE9has_valueEv(ptr noundef nonnull align 8 dereferenceable(24) %this) #5 comdat align 2 {
entry:
  %this.addr = alloca ptr, align 8
  store ptr %this, ptr %this.addr, align 8
  %this1 = load ptr, ptr %this.addr, align 8
  %storage_ = getelementptr inbounds %"class.folly::Optional", ptr %this1, i32 0, i32 0
  %hasValue = getelementptr inbounds %"struct.folly::Optional<std::pair<unsigned long, unsigned long>>::StorageTriviallyDestructible", ptr %storage_, i32 0, i32 1
  %0 = load i8, ptr %hasValue, align 8
  %tobool = trunc i8 %0 to i1
  ret i1 %tobool
}

; Function Attrs: mustprogress uwtable
define linkonce_odr void @_ZNK5folly8OptionalIN8proxygen2hq23BidirectionalStreamTypeEE13require_valueEv(ptr noundef nonnull align 8 dereferenceable(16) %this) #1 comdat align 2 {
entry:
  %this.addr = alloca ptr, align 8
  store ptr %this, ptr %this.addr, align 8
  %this1 = load ptr, ptr %this.addr, align 8
  %storage_ = getelementptr inbounds %"class.folly::Optional.13", ptr %this1, i32 0, i32 0
  %hasValue = getelementptr inbounds %"struct.folly::Optional<proxygen::hq::BidirectionalStreamType>::StorageTriviallyDestructible", ptr %storage_, i32 0, i32 1
  %0 = load i8, ptr %hasValue, align 8
  %tobool = trunc i8 %0 to i1
  br i1 %tobool, label %if.end, label %if.then

if.then:                                          ; preds = %entry
  call void @_ZN5folly6detail16throw_exception_INS_22OptionalEmptyExceptionEJEEEvDpT0_() #16
  unreachable

_ZN5folly15throw_exceptionINS_22OptionalEmptyExceptionEJEEEvDpOT0_.exit: ; No predecessors!
  unreachable

if.end:                                           ; preds = %entry
  ret void
}

; Function Attrs: mustprogress nounwind uwtable
define linkonce_odr noundef zeroext i1 @_ZNK5folly8OptionalIN8proxygen2hq23BidirectionalStreamTypeEE9has_valueEv(ptr noundef nonnull align 8 dereferenceable(16) %this) #5 comdat align 2 {
entry:
  %this.addr = alloca ptr, align 8
  store ptr %this, ptr %this.addr, align 8
  %this1 = load ptr, ptr %this.addr, align 8
  %storage_ = getelementptr inbounds %"class.folly::Optional.13", ptr %this1, i32 0, i32 0
  %hasValue = getelementptr inbounds %"struct.folly::Optional<proxygen::hq::BidirectionalStreamType>::StorageTriviallyDestructible", ptr %storage_, i32 0, i32 1
  %0 = load i8, ptr %hasValue, align 8
  %tobool = trunc i8 %0 to i1
  ret i1 %tobool
}

; Function Attrs: mustprogress uwtable
define linkonce_odr noundef ptr @_ZN5folly8OptionalISt4pairImmEEptEv(ptr noundef nonnull align 8 dereferenceable(24) %this) #1 comdat align 2 {
entry:
  %this.addr = alloca ptr, align 8
  store ptr %this, ptr %this.addr, align 8
  %this1 = load ptr, ptr %this.addr, align 8
  %call = call noundef nonnull align 8 dereferenceable(16) ptr @_ZNR5folly8OptionalISt4pairImmEE5valueEv(ptr noundef nonnull align 8 dereferenceable(24) %this1)
  ret ptr %call
}

; Function Attrs: mustprogress nounwind uwtable
define linkonce_odr noundef zeroext i1 @_ZNK5folly8OptionalISt4pairImmEEcvbEv(ptr noundef nonnull align 8 dereferenceable(24) %this) #5 comdat align 2 {
entry:
  %this.addr = alloca ptr, align 8
  store ptr %this, ptr %this.addr, align 8
  %this1 = load ptr, ptr %this.addr, align 8
  %call = call noundef zeroext i1 @_ZNK5folly8OptionalISt4pairImmEE9has_valueEv(ptr noundef nonnull align 8 dereferenceable(24) %this1) #4
  ret i1 %call
}

; Function Attrs: mustprogress uwtable
define linkonce_odr noundef nonnull align 8 dereferenceable(8) ptr @_ZNR5folly8OptionalIN8proxygen2hq23BidirectionalStreamTypeEE5valueEv(ptr noundef nonnull align 8 dereferenceable(16) %this) #1 comdat align 2 {
entry:
  %this.addr = alloca ptr, align 8
  store ptr %this, ptr %this.addr, align 8
  %this1 = load ptr, ptr %this.addr, align 8
  call void @_ZNK5folly8OptionalIN8proxygen2hq23BidirectionalStreamTypeEE13require_valueEv(ptr noundef nonnull align 8 dereferenceable(16) %this1)
  %storage_ = getelementptr inbounds %"class.folly::Optional.13", ptr %this1, i32 0, i32 0
  %0 = getelementptr inbounds %"struct.folly::Optional<proxygen::hq::BidirectionalStreamType>::StorageTriviallyDestructible", ptr %storage_, i32 0, i32 0
  ret ptr %0
}

; Function Attrs: mustprogress nounwind uwtable
define linkonce_odr noundef zeroext i1 @_ZNK5folly8OptionalIN8proxygen2hq23BidirectionalStreamTypeEEcvbEv(ptr noundef nonnull align 8 dereferenceable(16) %this) #5 comdat align 2 {
entry:
  %this.addr = alloca ptr, align 8
  store ptr %this, ptr %this.addr, align 8
  %this1 = load ptr, ptr %this.addr, align 8
  %call = call noundef zeroext i1 @_ZNK5folly8OptionalIN8proxygen2hq23BidirectionalStreamTypeEE9has_valueEv(ptr noundef nonnull align 8 dereferenceable(16) %this1) #4
  ret i1 %call
}

; Function Attrs: mustprogress uwtable
define noundef i32 @_ZN8proxygen22HQBidiStreamDispatcher12handleStreamEmRN5folly2io6CursorEmm(ptr noundef nonnull align 8 dereferenceable(88) %this, i64 noundef %id, ptr noundef nonnull align 8 dereferenceable(56) %cursor, i64 noundef %preface, i64 noundef %consumed) unnamed_addr #1 align 2 personality ptr @__gxx_personality_v0 {
entry:
  %retval = alloca i32, align 4
  %this.addr = alloca ptr, align 8
  %id.addr = alloca i64, align 8
  %cursor.addr = alloca ptr, align 8
  %preface.addr = alloca i64, align 8
  %consumed.addr = alloca i64, align 8
  %type = alloca %"class.folly::Optional.13", align 8
  %sessionID = alloca %"class.folly::Optional", align 8
  %ref.tmp = alloca %"class.google::LogMessage", align 8
  %exn.slot = alloca ptr, align 8
  %ehselector.slot = alloca i32, align 4
  store ptr %this, ptr %this.addr, align 8
  store i64 %id, ptr %id.addr, align 8
  store ptr %cursor, ptr %cursor.addr, align 8
  store i64 %preface, ptr %preface.addr, align 8
  store i64 %consumed, ptr %consumed.addr, align 8
  %this1 = load ptr, ptr %this.addr, align 8
  %callback_ = getelementptr inbounds %"class.proxygen::HQBidiStreamDispatcher", ptr %this1, i32 0, i32 1
  %0 = load ptr, ptr %callback_, align 8
  %1 = load i64, ptr %preface.addr, align 8
  %vtable = load ptr, ptr %0, align 8
  %vfn = getelementptr inbounds ptr, ptr %vtable, i64 5
  %2 = load ptr, ptr %vfn, align 8
  call void %2(ptr sret(%"class.folly::Optional.13") align 8 %type, ptr noundef nonnull align 8 dereferenceable(8) %0, i64 noundef %1)
  %call = call noundef zeroext i1 @_ZNK5folly8OptionalIN8proxygen2hq23BidirectionalStreamTypeEEcvbEv(ptr noundef nonnull align 8 dereferenceable(16) %type) #4
  br i1 %call, label %if.end, label %if.then

if.then:                                          ; preds = %entry
  store i32 1, ptr %retval, align 4
  br label %return

if.end:                                           ; preds = %entry
  %call2 = call noundef nonnull align 8 dereferenceable(8) ptr @_ZNR5folly8OptionalIN8proxygen2hq23BidirectionalStreamTypeEE5valueEv(ptr noundef nonnull align 8 dereferenceable(16) %type)
  %3 = load i64, ptr %call2, align 8
  switch i64 %3, label %sw.default [
    i64 0, label %sw.bb
    i64 65, label %sw.bb7
  ]

sw.bb:                                            ; preds = %if.end
  %callback_3 = getelementptr inbounds %"class.proxygen::HQBidiStreamDispatcher", ptr %this1, i32 0, i32 1
  %4 = load ptr, ptr %callback_3, align 8
  %5 = load i64, ptr %id.addr, align 8
  %call4 = call noundef i64 @_ZN8proxygen22HQStreamDispatcherBase16releaseOwnershipEm(ptr noundef nonnull align 8 dereferenceable(73) %this1, i64 noundef %5)
  %vtable5 = load ptr, ptr %4, align 8
  %vfn6 = getelementptr inbounds ptr, ptr %vtable5, i64 6
  %6 = load ptr, ptr %vfn6, align 8
  call void %6(ptr noundef nonnull align 8 dereferenceable(8) %4, i64 noundef %call4)
  store i32 0, ptr %retval, align 4
  br label %return

sw.bb7:                                           ; preds = %if.end
  %7 = load ptr, ptr %cursor.addr, align 8
  call void @_ZN4quic17decodeQuicIntegerERN5folly2io6CursorEm(ptr sret(%"class.folly::Optional") align 8 %sessionID, ptr noundef nonnull align 8 dereferenceable(56) %7, i64 noundef 8)
  %call8 = call noundef zeroext i1 @_ZNK5folly8OptionalISt4pairImmEEcvbEv(ptr noundef nonnull align 8 dereferenceable(24) %sessionID) #4
  br i1 %call8, label %if.then9, label %if.else

if.then9:                                         ; preds = %sw.bb7
  %call10 = call noundef ptr @_ZN5folly8OptionalISt4pairImmEEptEv(ptr noundef nonnull align 8 dereferenceable(24) %sessionID)
  %second = getelementptr inbounds %"struct.std::pair", ptr %call10, i32 0, i32 1
  %8 = load i64, ptr %second, align 8
  %9 = load i64, ptr %consumed.addr, align 8
  %add = add i64 %9, %8
  store i64 %add, ptr %consumed.addr, align 8
  %callback_11 = getelementptr inbounds %"class.proxygen::HQBidiStreamDispatcher", ptr %this1, i32 0, i32 1
  %10 = load ptr, ptr %callback_11, align 8
  %11 = load i64, ptr %id.addr, align 8
  %call12 = call noundef i64 @_ZN8proxygen22HQStreamDispatcherBase16releaseOwnershipEm(ptr noundef nonnull align 8 dereferenceable(73) %this1, i64 noundef %11)
  %call13 = call noundef ptr @_ZN5folly8OptionalISt4pairImmEEptEv(ptr noundef nonnull align 8 dereferenceable(24) %sessionID)
  %first = getelementptr inbounds %"struct.std::pair", ptr %call13, i32 0, i32 0
  %12 = load i64, ptr %first, align 8
  %13 = load i64, ptr %consumed.addr, align 8
  %vtable14 = load ptr, ptr %10, align 8
  %vfn15 = getelementptr inbounds ptr, ptr %vtable14, i64 7
  %14 = load ptr, ptr %vfn15, align 8
  call void %14(ptr noundef nonnull align 8 dereferenceable(8) %10, i64 noundef %call12, i64 noundef %12, i64 noundef %13)
  store i32 0, ptr %retval, align 4
  br label %return

if.else:                                          ; preds = %sw.bb7
  store i32 2, ptr %retval, align 4
  br label %return

sw.default:                                       ; preds = %if.end
  call void @_ZN6google10LogMessageC1EPKcii(ptr noundef nonnull align 8 dereferenceable(96) %ref.tmp, ptr noundef @.str, i32 noundef 185, i32 noundef 2)
  %call16 = invoke noundef nonnull align 8 dereferenceable(8) ptr @_ZN6google10LogMessage6streamEv(ptr noundef nonnull align 8 dereferenceable(96) %ref.tmp)
          to label %invoke.cont unwind label %lpad

invoke.cont:                                      ; preds = %sw.default
  %call18 = invoke noundef nonnull align 8 dereferenceable(8) ptr @_ZStlsISt11char_traitsIcEERSt13basic_ostreamIcT_ES5_PKc(ptr noundef nonnull align 8 dereferenceable(8) %call16, ptr noundef @.str.12)
          to label %invoke.cont17 unwind label %lpad

invoke.cont17:                                    ; preds = %invoke.cont
  %call20 = invoke noundef nonnull align 8 dereferenceable(8) ptr @_ZNR5folly8OptionalIN8proxygen2hq23BidirectionalStreamTypeEE5valueEv(ptr noundef nonnull align 8 dereferenceable(16) %type)
          to label %invoke.cont19 unwind label %lpad

invoke.cont19:                                    ; preds = %invoke.cont17
  %15 = load i64, ptr %call20, align 8
  %call22 = invoke noundef nonnull align 8 dereferenceable(8) ptr @_ZNSolsEm(ptr noundef nonnull align 8 dereferenceable(8) %call18, i64 noundef %15)
          to label %invoke.cont21 unwind label %lpad

invoke.cont21:                                    ; preds = %invoke.cont19
  call void @_ZN6google10LogMessageD1Ev(ptr noundef nonnull align 8 dereferenceable(96) %ref.tmp) #4
  br label %sw.epilog

sw.epilog:                                        ; preds = %invoke.cont21
  store i32 1, ptr %retval, align 4
  br label %return

lpad:                                             ; preds = %invoke.cont19, %invoke.cont17, %invoke.cont, %sw.default
  %16 = landingpad { ptr, i32 }
          cleanup
  %17 = extractvalue { ptr, i32 } %16, 0
  store ptr %17, ptr %exn.slot, align 8
  %18 = extractvalue { ptr, i32 } %16, 1
  store i32 %18, ptr %ehselector.slot, align 4
  call void @_ZN6google10LogMessageD1Ev(ptr noundef nonnull align 8 dereferenceable(96) %ref.tmp) #4
  br label %eh.resume

return:                                           ; preds = %sw.epilog, %if.else, %if.then9, %sw.bb, %if.then
  %19 = load i32, ptr %retval, align 4
  ret i32 %19

eh.resume:                                        ; preds = %lpad
  %exn = load ptr, ptr %exn.slot, align 8
  %sel = load i32, ptr %ehselector.slot, align 4
  %lpad.val = insertvalue { ptr, i32 } poison, ptr %exn, 0
  %lpad.val23 = insertvalue { ptr, i32 } %lpad.val, i32 %sel, 1
  resume { ptr, i32 } %lpad.val23
}