; Function Attrs: mustprogress uwtable
define noundef i32 @_ZN8proxygen22HQBidiStreamDispatcher12handleStreamEmRN5folly2io6CursorEmm(ptr noundef nonnull align 8 dereferenceable(88) %this, i64 noundef %id, ptr noundef nonnull align 8 dereferenceable(56) %cursor, i64 noundef %preface, i64 noundef %consumed) unnamed_addr #6 align 2 personality ptr @__gxx_personality_v0 {
entry:
  %type = alloca %"class.folly::Optional.13", align 8
  %sessionID = alloca %"class.folly::Optional", align 8
  %ref.tmp = alloca %"class.google::LogMessage", align 8
  %callback_ = getelementptr inbounds i8, ptr %this, i64 80
  %0 = load ptr, ptr %callback_, align 8
  %vtable = load ptr, ptr %0, align 8
  %vfn = getelementptr inbounds i8, ptr %vtable, i64 40
  %1 = load ptr, ptr %vfn, align 8
  call void %1(ptr nonnull sret(%"class.folly::Optional.13") align 8 %type, ptr noundef nonnull align 8 dereferenceable(8) %0, i64 noundef %preface)
  %hasValue.i.i = getelementptr inbounds i8, ptr %type, i64 8
  %2 = load i8, ptr %hasValue.i.i, align 8
  %3 = and i8 %2, 1
  %tobool.i.i.not = icmp eq i8 %3, 0
  br i1 %tobool.i.i.not, label %return, label %_ZNR5folly8OptionalIN8proxygen2hq23BidirectionalStreamTypeEE5valueEv.exit

_ZNR5folly8OptionalIN8proxygen2hq23BidirectionalStreamTypeEE5valueEv.exit: ; preds = %entry
  %4 = load i64, ptr %type, align 8
  switch i64 %4, label %sw.default [
    i64 0, label %sw.bb
    i64 65, label %sw.bb7
  ]

sw.bb:                                            ; preds = %_ZNR5folly8OptionalIN8proxygen2hq23BidirectionalStreamTypeEE5valueEv.exit
  %5 = load ptr, ptr %callback_, align 8
  %call4 = call noundef i64 @_ZN8proxygen22HQStreamDispatcherBase16releaseOwnershipEm(ptr noundef nonnull align 8 dereferenceable(73) %this, i64 noundef %id)
  %vtable5 = load ptr, ptr %5, align 8
  %vfn6 = getelementptr inbounds i8, ptr %vtable5, i64 48
  %6 = load ptr, ptr %vfn6, align 8
  call void %6(ptr noundef nonnull align 8 dereferenceable(8) %5, i64 noundef %call4)
  br label %return

sw.bb7:                                           ; preds = %_ZNR5folly8OptionalIN8proxygen2hq23BidirectionalStreamTypeEE5valueEv.exit
  call void @_ZN4quic17decodeQuicIntegerERN5folly2io6CursorEm(ptr nonnull sret(%"class.folly::Optional") align 8 %sessionID, ptr noundef nonnull align 8 dereferenceable(56) %cursor, i64 noundef 8)
  %hasValue.i.i4 = getelementptr inbounds i8, ptr %sessionID, i64 16
  %7 = load i8, ptr %hasValue.i.i4, align 8
  %8 = and i8 %7, 1
  %tobool.i.i5.not = icmp eq i8 %8, 0
  br i1 %tobool.i.i5.not, label %return, label %_ZN5folly8OptionalISt4pairImmEEptEv.exit

_ZN5folly8OptionalISt4pairImmEEptEv.exit:         ; preds = %sw.bb7
  %second = getelementptr inbounds i8, ptr %sessionID, i64 8
  %9 = load i64, ptr %second, align 8
  %10 = load ptr, ptr %callback_, align 8
  %call12 = call noundef i64 @_ZN8proxygen22HQStreamDispatcherBase16releaseOwnershipEm(ptr noundef nonnull align 8 dereferenceable(73) %this, i64 noundef %id)
  %11 = load i8, ptr %hasValue.i.i4, align 8
  %12 = and i8 %11, 1
  %tobool.not.i.i.i7 = icmp eq i8 %12, 0
  br i1 %tobool.not.i.i.i7, label %if.then.i.i.i8, label %_ZN5folly8OptionalISt4pairImmEEptEv.exit9

if.then.i.i.i8:                                   ; preds = %_ZN5folly8OptionalISt4pairImmEEptEv.exit
  call void @_ZN5folly6detail16throw_exception_INS_22OptionalEmptyExceptionEJEEEvDpT0_() #17
  unreachable

_ZN5folly8OptionalISt4pairImmEEptEv.exit9:        ; preds = %_ZN5folly8OptionalISt4pairImmEEptEv.exit
  %add = add i64 %9, %consumed
  %13 = load i64, ptr %sessionID, align 8
  %vtable14 = load ptr, ptr %10, align 8
  %vfn15 = getelementptr inbounds i8, ptr %vtable14, i64 56
  %14 = load ptr, ptr %vfn15, align 8
  call void %14(ptr noundef nonnull align 8 dereferenceable(8) %10, i64 noundef %call12, i64 noundef %13, i64 noundef %add)
  br label %return

sw.default:                                       ; preds = %_ZNR5folly8OptionalIN8proxygen2hq23BidirectionalStreamTypeEE5valueEv.exit
  call void @_ZN6google10LogMessageC1EPKcii(ptr noundef nonnull align 8 dereferenceable(96) %ref.tmp, ptr noundef nonnull @.str, i32 noundef 185, i32 noundef 2)
  %call16 = invoke noundef nonnull align 8 dereferenceable(8) ptr @_ZN6google10LogMessage6streamEv(ptr noundef nonnull align 8 dereferenceable(96) %ref.tmp)
          to label %invoke.cont unwind label %lpad

invoke.cont:                                      ; preds = %sw.default
  %call18 = invoke noundef nonnull align 8 dereferenceable(8) ptr @_ZStlsISt11char_traitsIcEERSt13basic_ostreamIcT_ES5_PKc(ptr noundef nonnull align 8 dereferenceable(8) %call16, ptr noundef nonnull @.str.12)
          to label %invoke.cont17 unwind label %lpad

invoke.cont17:                                    ; preds = %invoke.cont
  %15 = load i8, ptr %hasValue.i.i, align 8
  %16 = and i8 %15, 1
  %tobool.not.i.i11 = icmp eq i8 %16, 0
  br i1 %tobool.not.i.i11, label %if.then.i.i12, label %invoke.cont19

if.then.i.i12:                                    ; preds = %invoke.cont17
  invoke void @_ZN5folly6detail16throw_exception_INS_22OptionalEmptyExceptionEJEEEvDpT0_() #17
          to label %.noexc unwind label %lpad

.noexc:                                           ; preds = %if.then.i.i12
  unreachable

invoke.cont19:                                    ; preds = %invoke.cont17
  %17 = load i64, ptr %type, align 8
  %call22 = invoke noundef nonnull align 8 dereferenceable(8) ptr @_ZNSolsEm(ptr noundef nonnull align 8 dereferenceable(8) %call18, i64 noundef %17)
          to label %invoke.cont21 unwind label %lpad

invoke.cont21:                                    ; preds = %invoke.cont19
  call void @_ZN6google10LogMessageD1Ev(ptr noundef nonnull align 8 dereferenceable(96) %ref.tmp) #15
  br label %return

lpad:                                             ; preds = %if.then.i.i12, %invoke.cont19, %invoke.cont, %sw.default
  %18 = landingpad { ptr, i32 }
          cleanup
  call void @_ZN6google10LogMessageD1Ev(ptr noundef nonnull align 8 dereferenceable(96) %ref.tmp) #15
  resume { ptr, i32 } %18

return:                                           ; preds = %sw.bb7, %entry, %invoke.cont21, %_ZN5folly8OptionalISt4pairImmEEptEv.exit9, %sw.bb
  %retval.0 = phi i32 [ 1, %invoke.cont21 ], [ 0, %_ZN5folly8OptionalISt4pairImmEEptEv.exit9 ], [ 0, %sw.bb ], [ 1, %entry ], [ 2, %sw.bb7 ]
  ret i32 %retval.0
}